(iStateMachine
StateMachine
p1
(dp2
S'states'
p3
(dp4
I0
(iStateMachine
State
p5
(dp6
S'labelstring'
p7
S'0'
sS'transitions'
p8
(dp9
I0
(iStateMachine
State
p10
(dp11
g7
S'0 1'
p12
sg8
(dp13
I1
g5
ssS'id'
p14
I37
sS'isStart'
p15
I00
sbssg14
I0
sg15
I01
sbsI37
g10
ssS'eventCount'
p16
(dp17
(I37
I1
tp18
I9
s(I0
I0
tp19
I10
ssb.